; ModuleID = '43/644.c'
source_filename = "43/644.c"
target datalayout = "e-m:e-p270:32:32-p271:32:32-p272:64:64-i64:64-f80:128-n8:16:32:64-S128"
target triple = "x86_64-pc-linux-gnu"

@.str = private unnamed_addr constant [3 x i8] c"%d\00", align 1
@.str.1 = private unnamed_addr constant [7 x i8] c"%d %d\0A\00", align 1

; Function Attrs: noinline nounwind uwtable
define dso_local i32 @main() #0 {
  %1 = alloca i32, align 4
  %2 = alloca i32, align 4
  %3 = alloca i32, align 4
  %4 = alloca i32, align 4
  %5 = alloca i32, align 4
  %6 = alloca i32, align 4
  %7 = alloca i32, align 4
  %8 = alloca i32, align 4
  %9 = alloca i32, align 4
  %10 = alloca [10000 x i32], align 16
  store i32 0, i32* %1, align 4
  store i32 1, i32* %9, align 4
  %11 = call i32 (i8*, ...) @__isoc99_scanf(i8* getelementptr inbounds ([3 x i8], [3 x i8]* @.str, i64 0, i64 0), i32* %2)
  store i32 1, i32* %5, align 4
  store i32 3, i32* %3, align 4
  br label %12

12:                                               ; preds = %46, %0
  %13 = load i32, i32* %3, align 4
  %14 = load i32, i32* %2, align 4
  %15 = icmp sle i32 %13, %14
  br i1 %15, label %16, label %49

16:                                               ; preds = %12
  store i32 1, i32* %9, align 4
  store i32 3, i32* %4, align 4
  br label %17

17:                                               ; preds = %32, %16
  %18 = load i32, i32* %4, align 4
  %19 = load i32, i32* %3, align 4
  %20 = sitofp i32 %19 to double
  %21 = call double @sqrt(double %20) #4
  %22 = call double @llvm.floor.f64(double %21)
  %23 = fptosi double %22 to i32
  %24 = icmp sle i32 %18, %23
  br i1 %24, label %25, label %35

25:                                               ; preds = %17
  %26 = load i32, i32* %3, align 4
  %27 = load i32, i32* %4, align 4
  %28 = srem i32 %26, %27
  %29 = icmp eq i32 %28, 0
  br i1 %29, label %30, label %31

30:                                               ; preds = %25
  store i32 0, i32* %9, align 4
  br label %35

31:                                               ; preds = %25
  br label %32

32:                                               ; preds = %31
  %33 = load i32, i32* %4, align 4
  %34 = add nsw i32 %33, 1
  store i32 %34, i32* %4, align 4
  br label %17

35:                                               ; preds = %30, %17
  %36 = load i32, i32* %9, align 4
  %37 = icmp eq i32 %36, 1
  br i1 %37, label %38, label %45

38:                                               ; preds = %35
  %39 = load i32, i32* %3, align 4
  %40 = load i32, i32* %5, align 4
  %41 = sext i32 %40 to i64
  %42 = getelementptr inbounds [10000 x i32], [10000 x i32]* %10, i64 0, i64 %41
  store i32 %39, i32* %42, align 4
  %43 = load i32, i32* %5, align 4
  %44 = add nsw i32 %43, 1
  store i32 %44, i32* %5, align 4
  br label %45

45:                                               ; preds = %38, %35
  br label %46

46:                                               ; preds = %45
  %47 = load i32, i32* %3, align 4
  %48 = add nsw i32 %47, 2
  store i32 %48, i32* %3, align 4
  br label %12

49:                                               ; preds = %12
  %50 = load i32, i32* %5, align 4
  %51 = sub nsw i32 %50, 1
  store i32 %51, i32* %8, align 4
  store i32 1, i32* %6, align 4
  br label %52

52:                                               ; preds = %89, %49
  %53 = load i32, i32* %6, align 4
  %54 = load i32, i32* %8, align 4
  %55 = icmp sle i32 %53, %54
  br i1 %55, label %56, label %92

56:                                               ; preds = %52
  %57 = load i32, i32* %6, align 4
  store i32 %57, i32* %7, align 4
  br label %58

58:                                               ; preds = %85, %56
  %59 = load i32, i32* %7, align 4
  %60 = load i32, i32* %8, align 4
  %61 = icmp sle i32 %59, %60
  br i1 %61, label %62, label %88

62:                                               ; preds = %58
  %63 = load i32, i32* %6, align 4
  %64 = sext i32 %63 to i64
  %65 = getelementptr inbounds [10000 x i32], [10000 x i32]* %10, i64 0, i64 %64
  %66 = load i32, i32* %65, align 4
  %67 = load i32, i32* %7, align 4
  %68 = sext i32 %67 to i64
  %69 = getelementptr inbounds [10000 x i32], [10000 x i32]* %10, i64 0, i64 %68
  %70 = load i32, i32* %69, align 4
  %71 = add nsw i32 %66, %70
  %72 = load i32, i32* %2, align 4
  %73 = icmp eq i32 %71, %72
  br i1 %73, label %74, label %84

74:                                               ; preds = %62
  %75 = load i32, i32* %6, align 4
  %76 = sext i32 %75 to i64
  %77 = getelementptr inbounds [10000 x i32], [10000 x i32]* %10, i64 0, i64 %76
  %78 = load i32, i32* %77, align 4
  %79 = load i32, i32* %7, align 4
  %80 = sext i32 %79 to i64
  %81 = getelementptr inbounds [10000 x i32], [10000 x i32]* %10, i64 0, i64 %80
  %82 = load i32, i32* %81, align 4
  %83 = call i32 (i8*, ...) @printf(i8* getelementptr inbounds ([7 x i8], [7 x i8]* @.str.1, i64 0, i64 0), i32 %78, i32 %82)
  br label %84

84:                                               ; preds = %74, %62
  br label %85

85:                                               ; preds = %84
  %86 = load i32, i32* %7, align 4
  %87 = add nsw i32 %86, 1
  store i32 %87, i32* %7, align 4
  br label %58

88:                                               ; preds = %58
  br label %89

89:                                               ; preds = %88
  %90 = load i32, i32* %6, align 4
  %91 = add nsw i32 %90, 1
  store i32 %91, i32* %6, align 4
  br label %52

92:                                               ; preds = %52
  ret i32 0
}

declare dso_local i32 @__isoc99_scanf(i8*, ...) #1

; Function Attrs: nounwind
declare dso_local double @sqrt(double) #2

; Function Attrs: nounwind readnone speculatable willreturn
declare double @llvm.floor.f64(double) #3

declare dso_local i32 @printf(i8*, ...) #1


!llvm.module.flags = !{!0}
!llvm.ident = !{!1}

!0 = !{i32 1, !"wchar_size", i32 4}
!1 = !{!"clang version 10.0.0-4ubuntu1 "}
